Certificate:
    Data:
        Version: 3 (0x2)
        Serial Number:
            e3:2c:f8:b2:f5:12:25:88
    Signature Algorithm: sha1WithRSAEncryption
        Issuer: C=AU, ST=Some-State, O=Internet Widgits Pty Ltd
        Validity
            Not Before: Nov 15 12:22:52 2014 GMT
            Not After : Nov 15 12:22:52 2015 GMT
        Subject: C=AU, ST=Some-State, O=Internet Widgits Pty Ltd, CN=localhost
        Subject Public Key Info:
            Public Key Algorithm: rsaEncryption
                Public-Key: (1024 bit)
                Modulus:
                    00:dc:fc:99:72:a9:51:51:be:61:22:51:7f:ce:ce:
                    dc:ba:d7:e6:27:03:0b:86:23:4b:e0:28:cb:58:34:
                    75:b6:28:6a:39:0c:23:6c:62:00:88:d2:00:59:38:
                    5e:0a:ee:7d:df:38:6c:21:96:89:8f:ac:a3:7d:28:
                    50:1b:7f:60:fd:8a:d0:91:67:f7:b6:a2:1a:59:14:
                    e4:9e:cb:be:ee:30:39:4e:8e:83:38:df:af:5f:64:
                    a9:1d:94:f5:53:d3:24:ea:80:81:91:be:52:ec:c3:
                    0f:62:89:79:5e:4d:48:16:8f:1f:bc:47:6f:4b:de:
                    11:58:0b:67:0c:4e:01:14:47
                Exponent: 65537 (0x10001)
        X509v3 extensions:
            X509v3 Basic Constraints: 
                CA:FALSE
            Netscape Comment: 
                OpenSSL Generated Certificate
            X509v3 Subject Key Identifier: 
                ED:82:3E:19:02:7B:66:C9:B2:57:D8:0D:2B:29:C6:14:7D:F4:FF:DA
            X509v3 Authority Key Identifier: 
                keyid:BD:99:88:52:B5:22:96:04:AA:AA:63:AB:EA:B7:71:63:1B:DE:B6:4C

    Signature Algorithm: sha1WithRSAEncryption
         b4:d5:a6:ec:d3:be:13:14:86:b7:4d:b7:64:13:19:09:55:18:
         9b:46:29:cc:06:a7:f5:d5:03:e8:5e:f2:15:2c:e4:d5:8b:7d:
         a4:3c:71:b6:e9:c9:86:1f:62:07:30:af:92:2b:44:8f:0f:e8:
         e9:39:dd:42:94:05:5c:7a:f1:d8:0c:67:1d:16:40:2c:85:6d:
         c2:d5:81:58:b2:36:33:85:45:5a:13:92:12:a9:0b:34:ad:9d:
         d7:0f:6e:0f:c2:8c:ee:50:34:49:19:b7:24:84:67:af:69:19:
         7c:71:5d:ba:f8:96:3b:c4:83:d8:e5:b6:14:6d:3f:6a:83:32:
         7c:fc
-----BEGIN CERTIFICATE-----
MIIClzCCAgCgAwIBAgIJAOMs+LL1EiWIMA0GCSqGSIb3DQEBBQUAMEUxCzAJBgNV
BAYTAkFVMRMwEQYDVQQIDApTb21lLVN0YXRlMSEwHwYDVQQKDBhJbnRlcm5ldCBX
aWRnaXRzIFB0eSBMdGQwHhcNMTQxMTE1MTIyMjUyWhcNMTUxMTE1MTIyMjUyWjBZ
MQswCQYDVQQGEwJBVTETMBEGA1UECAwKU29tZS1TdGF0ZTEhMB8GA1UECgwYSW50
ZXJuZXQgV2lkZ2l0cyBQdHkgTHRkMRIwEAYDVQQDDAlsb2NhbGhvc3QwgZ8wDQYJ
KoZIhvcNAQEBBQADgY0AMIGJAoGBANz8mXKpUVG+YSJRf87O3LrX5icDC4YjS+Ao
y1g0dbYoajkMI2xiAIjSAFk4Xgrufd84bCGWiY+so30oUBt/YP2K0JFn97aiGlkU
5J7Lvu4wOU6Ogzjfr19kqR2U9VPTJOqAgZG+UuzDD2KJeV5NSBaPH7xHb0veEVgL
ZwxOARRHAgMBAAGjezB5MAkGA1UdEwQCMAAwLAYJYIZIAYb4QgENBB8WHU9wZW5T
U0wgR2VuZXJhdGVkIENlcnRpZmljYXRlMB0GA1UdDgQWBBTtgj4ZAntmybJX2A0r
KcYUffT/2jAfBgNVHSMEGDAWgBS9mYhStSKWBKqqY6vqt3FjG962TDANBgkqhkiG
9w0BAQUFAAOBgQC01abs074TFIa3TbdkExkJVRibRinMBqf11QPoXvIVLOTVi32k
PHG26cmGH2IHMK+SK0SPD+jpOd1ClAVcevHYDGcdFkAshW3C1YFYsjYzhUVaE5IS
qQs0rZ3XD24PwozuUDRJGbckhGevaRl8cV26+JY7xIPY5bYUbT9qgzJ8/A==
-----END CERTIFICATE-----
