Certificate:
    Data:
        Version: 3 (0x2)
        Serial Number:
            e3:2c:f8:b2:f5:12:25:86
    Signature Algorithm: sha1WithRSAEncryption
        Issuer: C=AU, ST=Some-State, O=Internet Widgits Pty Ltd
        Validity
            Not Before: Nov 14 15:29:04 2014 GMT
            Not After : Nov 14 15:29:04 2015 GMT
        Subject: C=AU, ST=Some-State, O=Internet Widgits Pty Ltd, CN=client
        Subject Public Key Info:
            Public Key Algorithm: rsaEncryption
                Public-Key: (1024 bit)
                Modulus:
                    00:ae:98:3b:d7:6d:12:b4:27:e2:3f:87:0c:12:19:
                    9f:07:ba:66:dd:14:a9:cb:70:cf:c4:5f:46:95:96:
                    91:71:ae:c0:27:82:df:7a:f9:2e:30:7f:3f:91:4d:
                    b8:84:35:e8:f5:5f:57:13:07:29:f6:1e:94:6b:0a:
                    43:04:84:55:18:7c:c9:67:20:17:9a:92:f4:1d:46:
                    cd:69:9f:e6:f9:29:2c:c7:90:d1:49:02:fa:3f:a9:
                    dd:bd:26:e7:ce:52:e7:59:f2:5d:c2:ce:48:da:0e:
                    68:dc:53:45:86:4c:b3:f7:5e:74:4d:3d:63:26:3e:
                    c9:ff:f9:03:51:73:fd:c5:45
                Exponent: 65537 (0x10001)
        X509v3 extensions:
            X509v3 Basic Constraints: 
                CA:FALSE
            Netscape Comment: 
                OpenSSL Generated Certificate
            X509v3 Subject Key Identifier: 
                BB:DF:A4:A3:D7:04:B1:AE:35:E9:79:26:60:63:7E:73:35:87:16:E9
            X509v3 Authority Key Identifier: 
                keyid:BD:99:88:52:B5:22:96:04:AA:AA:63:AB:EA:B7:71:63:1B:DE:B6:4C

    Signature Algorithm: sha1WithRSAEncryption
         c2:46:82:5a:b3:b7:f2:92:4c:03:77:0b:6e:24:b5:e0:5a:7d:
         31:d6:b9:95:9a:c9:45:78:9b:59:a9:6b:e0:4b:79:2f:b6:e2:
         d7:a3:b0:f1:9f:d6:d0:4b:1e:e8:8d:b9:4b:87:85:ff:f7:ce:
         8b:61:8c:83:b5:d2:f6:ac:bf:4d:37:9e:1d:fa:ef:20:96:c6:
         d5:21:22:d7:e4:bb:f2:93:14:f0:50:78:1a:b4:53:f7:ad:40:
         44:0c:a9:bb:21:98:53:4b:0c:34:cc:34:81:4e:9a:2c:06:6d:
         58:31:03:db:6a:33:ab:17:2f:6c:d6:75:a8:28:e3:55:b0:de:
         46:87
-----BEGIN CERTIFICATE-----
MIIClDCCAf2gAwIBAgIJAOMs+LL1EiWGMA0GCSqGSIb3DQEBBQUAMEUxCzAJBgNV
BAYTAkFVMRMwEQYDVQQIDApTb21lLVN0YXRlMSEwHwYDVQQKDBhJbnRlcm5ldCBX
aWRnaXRzIFB0eSBMdGQwHhcNMTQxMTE0MTUyOTA0WhcNMTUxMTE0MTUyOTA0WjBW
MQswCQYDVQQGEwJBVTETMBEGA1UECAwKU29tZS1TdGF0ZTEhMB8GA1UECgwYSW50
ZXJuZXQgV2lkZ2l0cyBQdHkgTHRkMQ8wDQYDVQQDDAZjbGllbnQwgZ8wDQYJKoZI
hvcNAQEBBQADgY0AMIGJAoGBAK6YO9dtErQn4j+HDBIZnwe6Zt0Uqctwz8RfRpWW
kXGuwCeC33r5LjB/P5FNuIQ16PVfVxMHKfYelGsKQwSEVRh8yWcgF5qS9B1GzWmf
5vkpLMeQ0UkC+j+p3b0m585S51nyXcLOSNoOaNxTRYZMs/dedE09YyY+yf/5A1Fz
/cVFAgMBAAGjezB5MAkGA1UdEwQCMAAwLAYJYIZIAYb4QgENBB8WHU9wZW5TU0wg
R2VuZXJhdGVkIENlcnRpZmljYXRlMB0GA1UdDgQWBBS736Sj1wSxrjXpeSZgY35z
NYcW6TAfBgNVHSMEGDAWgBS9mYhStSKWBKqqY6vqt3FjG962TDANBgkqhkiG9w0B
AQUFAAOBgQDCRoJas7fykkwDdwtuJLXgWn0x1rmVmslFeJtZqWvgS3kvtuLXo7Dx
n9bQSx7ojblLh4X/986LYYyDtdL2rL9NN54d+u8glsbVISLX5LvykxTwUHgatFP3
rUBEDKm7IZhTSww0zDSBTposBm1YMQPbajOrFy9s1nWoKONVsN5Ghw==
-----END CERTIFICATE-----
